; Listing generated by Microsoft (R) Optimizing Compiler Version 19.00.24215.1 

include listing.inc

INCLUDELIB MSVCRT
INCLUDELIB OLDNAMES

EXTRN	__imp_?staticMetaObject@QWidget@@2UQMetaObject@@B:BYTE
CONST	SEGMENT
?qt_meta_stringdata_CustomControls@@3Uqt_meta_stringdata_CustomControls_t@@B DD 0ffffffffH ; qt_meta_stringdata_CustomControls
	DD	0eH
	DD	00H
	ORG $+4
	DQ	0000000000000108H
	DD	0ffffffffH
	DD	01aH
	DD	00H
	ORG $+4
	DQ	00000000000000ffH
	DD	0ffffffffH
	DD	00H
	DD	00H
	ORG $+4
	DQ	0000000000000102H
	DD	0ffffffffH
	DD	018H
	DD	00H
	ORG $+4
	DQ	00000000000000ebH
	DD	0ffffffffH
	DD	014H
	DD	00H
	ORG $+4
	DQ	00000000000000ecH
	DD	0ffffffffH
	DD	012H
	DD	00H
	ORG $+4
	DQ	00000000000000e9H
	DD	0ffffffffH
	DD	018H
	DD	00H
	ORG $+4
	DQ	00000000000000e4H
	DD	0ffffffffH
	DD	01aH
	DD	00H
	ORG $+4
	DQ	00000000000000e5H
	DD	0ffffffffH
	DD	010H
	DD	00H
	ORG $+4
	DQ	00000000000000e8H
	DD	0ffffffffH
	DD	05H
	DD	00H
	ORG $+4
	DQ	00000000000000e1H
	DD	0ffffffffH
	DD	0dH
	DD	00H
	ORG $+4
	DQ	00000000000000cfH
	DB	'CustomControls', 00H, 'on_progressbar_btn_clicked', 00H, 00H
	DB	'on_sliderbar_btn_clicked', 00H, 'on_panel_btn_clicked', 00H, 'o'
	DB	'n_qwt_btn_clicked', 00H, 'on_animation_btn_clicked', 00H, 'on'
	DB	'_otherbutton_btn_clicked', 00H, 'SetProgressValue', 00H, 'val'
	DB	'ue', 00H, 'SetPanelValue', 00H
	ORG $+3
?qt_meta_data_CustomControls@@3QBIB DD 07H		; qt_meta_data_CustomControls
	DD	00H
	DD	00H
	DD	00H
	DD	08H
	DD	0eH
	DD	00H
	DD	00H
	DD	00H
	DD	00H
	DD	00H
	DD	00H
	DD	00H
	DD	00H
	DD	01H
	DD	00H
	DD	036H
	DD	02H
	DD	08H
	DD	03H
	DD	00H
	DD	037H
	DD	02H
	DD	08H
	DD	04H
	DD	00H
	DD	038H
	DD	02H
	DD	08H
	DD	05H
	DD	00H
	DD	039H
	DD	02H
	DD	08H
	DD	06H
	DD	00H
	DD	03aH
	DD	02H
	DD	08H
	DD	07H
	DD	00H
	DD	03bH
	DD	02H
	DD	08H
	DD	08H
	DD	01H
	DD	03cH
	DD	02H
	DD	08H
	DD	0aH
	DD	01H
	DD	03fH
	DD	02H
	DD	08H
	DD	02bH
	DD	02bH
	DD	02bH
	DD	02bH
	DD	02bH
	DD	02bH
	DD	02bH
	DD	02H
	DD	09H
	DD	02bH
	DD	02H
	DD	09H
	DD	00H
CONST	ENDS
PUBLIC	?metaObject@CustomControls@@UEBAPEBUQMetaObject@@XZ ; CustomControls::metaObject
PUBLIC	?qt_metacast@CustomControls@@UEAAPEAXPEBD@Z	; CustomControls::qt_metacast
PUBLIC	?qt_metacall@CustomControls@@UEAAHW4Call@QMetaObject@@HPEAPEAX@Z ; CustomControls::qt_metacall
PUBLIC	?qt_static_metacall@CustomControls@@CAXPEAVQObject@@W4Call@QMetaObject@@HPEAPEAX@Z ; CustomControls::qt_static_metacall
PUBLIC	?staticMetaObject@CustomControls@@2UQMetaObject@@B ; CustomControls::staticMetaObject
EXTRN	__imp_?dynamicMetaObject@QObjectData@@QEBAPEAUQMetaObject@@XZ:PROC
EXTRN	__imp_?qt_metacast@QWidget@@UEAAPEAXPEBD@Z:PROC
EXTRN	__imp_?qt_metacall@QWidget@@UEAAHW4Call@QMetaObject@@HPEAPEAX@Z:PROC
EXTRN	?on_progressbar_btn_clicked@CustomControls@@AEAAXXZ:PROC ; CustomControls::on_progressbar_btn_clicked
EXTRN	?on_sliderbar_btn_clicked@CustomControls@@AEAAXXZ:PROC ; CustomControls::on_sliderbar_btn_clicked
EXTRN	?on_panel_btn_clicked@CustomControls@@AEAAXXZ:PROC ; CustomControls::on_panel_btn_clicked
EXTRN	?on_qwt_btn_clicked@CustomControls@@AEAAXXZ:PROC ; CustomControls::on_qwt_btn_clicked
EXTRN	?on_animation_btn_clicked@CustomControls@@AEAAXXZ:PROC ; CustomControls::on_animation_btn_clicked
EXTRN	?on_otherbutton_btn_clicked@CustomControls@@AEAAXXZ:PROC ; CustomControls::on_otherbutton_btn_clicked
EXTRN	?SetProgressValue@CustomControls@@AEAAXH@Z:PROC	; CustomControls::SetProgressValue
EXTRN	?SetPanelValue@CustomControls@@AEAAXH@Z:PROC	; CustomControls::SetPanelValue
EXTRN	__ImageBase:BYTE
;	COMDAT pdata
pdata	SEGMENT
$pdata$?qt_metacall@CustomControls@@UEAAHW4Call@QMetaObject@@HPEAPEAX@Z DD imagerel $LN10
	DD	imagerel $LN10+112
	DD	imagerel $unwind$?qt_metacall@CustomControls@@UEAAHW4Call@QMetaObject@@HPEAPEAX@Z
pdata	ENDS
CRT$XCU	SEGMENT
??staticMetaObject$initializer$@CustomControls@@2P6AXXZEA@@3P6AXXZEA DQ FLAT:??__E?staticMetaObject@CustomControls@@2UQMetaObject@@B@@YAXXZ ; ??staticMetaObject$initializer$@CustomControls@@2P6AXXZEA@@3P6AXXZEA
CRT$XCU	ENDS
_DATA	SEGMENT
?staticMetaObject@CustomControls@@2UQMetaObject@@B DB 8 DUP(00H) ; CustomControls::staticMetaObject
	DQ	FLAT:?qt_meta_stringdata_CustomControls@@3Uqt_meta_stringdata_CustomControls_t@@B
	DQ	FLAT:?qt_meta_data_CustomControls@@3QBIB
	DQ	FLAT:?qt_static_metacall@CustomControls@@CAXPEAVQObject@@W4Call@QMetaObject@@HPEAPEAX@Z
	DQ	0000000000000000H
	DQ	0000000000000000H
_DATA	ENDS
;	COMDAT xdata
xdata	SEGMENT
$unwind$?qt_metacall@CustomControls@@UEAAHW4Call@QMetaObject@@HPEAPEAX@Z DD 081401H
	DD	086414H
	DD	075414H
	DD	063414H
	DD	070103214H
xdata	ENDS
; Function compile flags: /Ogtpy
;	COMDAT ??__E?staticMetaObject@CustomControls@@2UQMetaObject@@B@@YAXXZ
text$di	SEGMENT
??__E?staticMetaObject@CustomControls@@2UQMetaObject@@B@@YAXXZ PROC ; `dynamic initializer for 'CustomControls::staticMetaObject'', COMDAT
; File c:\users\dell\desktop\customcontrols\customcontrols\generatedfiles\release\moc_customcontrols.cpp
; Line 112
	mov	rax, QWORD PTR __imp_?staticMetaObject@QWidget@@2UQMetaObject@@B
	mov	QWORD PTR ?staticMetaObject@CustomControls@@2UQMetaObject@@B, rax
; Line 113
	ret	0
??__E?staticMetaObject@CustomControls@@2UQMetaObject@@B@@YAXXZ ENDP ; `dynamic initializer for 'CustomControls::staticMetaObject''
text$di	ENDS
; Function compile flags: /Ogtpy
;	COMDAT ?qt_static_metacall@CustomControls@@CAXPEAVQObject@@W4Call@QMetaObject@@HPEAPEAX@Z
_TEXT	SEGMENT
_o$ = 8
_c$ = 16
_id$ = 24
_a$ = 32
?qt_static_metacall@CustomControls@@CAXPEAVQObject@@W4Call@QMetaObject@@HPEAPEAX@Z PROC ; CustomControls::qt_static_metacall, COMDAT
; File c:\users\dell\desktop\customcontrols\customcontrols\generatedfiles\release\moc_customcontrols.cpp
; Line 94
	test	edx, edx
	jne	SHORT $LN13@qt_static_
; Line 97
	cmp	r8d, 7
	ja	SHORT $LN13@qt_static_
	movsxd	rax, r8d
	lea	r8, OFFSET FLAT:__ImageBase
	mov	edx, DWORD PTR $LN15@qt_static_[r8+rax*4]
	add	rdx, r8
	jmp	rdx
$LN5@qt_static_:
; Line 98
	jmp	?on_progressbar_btn_clicked@CustomControls@@AEAAXXZ ; CustomControls::on_progressbar_btn_clicked
$LN6@qt_static_:
; Line 99
	jmp	?on_sliderbar_btn_clicked@CustomControls@@AEAAXXZ ; CustomControls::on_sliderbar_btn_clicked
$LN7@qt_static_:
; Line 100
	jmp	?on_panel_btn_clicked@CustomControls@@AEAAXXZ ; CustomControls::on_panel_btn_clicked
$LN8@qt_static_:
; Line 101
	jmp	?on_qwt_btn_clicked@CustomControls@@AEAAXXZ ; CustomControls::on_qwt_btn_clicked
$LN9@qt_static_:
; Line 102
	jmp	?on_animation_btn_clicked@CustomControls@@AEAAXXZ ; CustomControls::on_animation_btn_clicked
$LN10@qt_static_:
; Line 103
	jmp	?on_otherbutton_btn_clicked@CustomControls@@AEAAXXZ ; CustomControls::on_otherbutton_btn_clicked
$LN11@qt_static_:
; Line 104
	mov	rax, QWORD PTR [r9+8]
	mov	edx, DWORD PTR [rax]
	jmp	?SetProgressValue@CustomControls@@AEAAXH@Z ; CustomControls::SetProgressValue
$LN12@qt_static_:
; Line 105
	mov	rax, QWORD PTR [r9+8]
	mov	edx, DWORD PTR [rax]
	jmp	?SetPanelValue@CustomControls@@AEAAXH@Z	; CustomControls::SetPanelValue
$LN13@qt_static_:
; Line 109
	ret	0
	npad	2
$LN15@qt_static_:
	DD	$LN5@qt_static_
	DD	$LN6@qt_static_
	DD	$LN7@qt_static_
	DD	$LN8@qt_static_
	DD	$LN9@qt_static_
	DD	$LN10@qt_static_
	DD	$LN11@qt_static_
	DD	$LN12@qt_static_
?qt_static_metacall@CustomControls@@CAXPEAVQObject@@W4Call@QMetaObject@@HPEAPEAX@Z ENDP ; CustomControls::qt_static_metacall
_TEXT	ENDS
; Function compile flags: /Ogtpy
;	COMDAT ?qt_metacall@CustomControls@@UEAAHW4Call@QMetaObject@@HPEAPEAX@Z
_TEXT	SEGMENT
this$ = 48
_c$ = 56
_id$ = 64
_a$ = 72
?qt_metacall@CustomControls@@UEAAHW4Call@QMetaObject@@HPEAPEAX@Z PROC ; CustomControls::qt_metacall, COMDAT
; File c:\users\dell\desktop\customcontrols\customcontrols\generatedfiles\release\moc_customcontrols.cpp
; Line 131
$LN10:
	mov	QWORD PTR [rsp+8], rbx
	mov	QWORD PTR [rsp+16], rbp
	mov	QWORD PTR [rsp+24], rsi
	push	rdi
	sub	rsp, 32					; 00000020H
	mov	rsi, r9
	mov	edi, edx
	mov	rbp, rcx
; Line 132
	call	QWORD PTR __imp_?qt_metacall@QWidget@@UEAAHW4Call@QMetaObject@@HPEAPEAX@Z
	mov	ebx, eax
; Line 133
	test	eax, eax
	js	SHORT $LN1@qt_metacal
; Line 135
	test	edi, edi
	jne	SHORT $LN3@qt_metacal
; Line 136
	cmp	eax, 8
	jge	SHORT $LN7@qt_metacal
; Line 137
	mov	r9, rsi
	mov	r8d, eax
	xor	edx, edx
	mov	rcx, rbp
	call	?qt_static_metacall@CustomControls@@CAXPEAVQObject@@W4Call@QMetaObject@@HPEAPEAX@Z ; CustomControls::qt_static_metacall
; Line 138
	jmp	SHORT $LN7@qt_metacal
$LN3@qt_metacal:
; Line 139
	cmp	edi, 12
	jne	SHORT $LN6@qt_metacal
; Line 140
	cmp	ebx, 8
	jge	SHORT $LN7@qt_metacal
; Line 141
	mov	rax, QWORD PTR [rsi]
	mov	DWORD PTR [rax], -1
$LN7@qt_metacal:
; Line 142
	sub	ebx, 8
$LN6@qt_metacal:
; Line 144
	mov	eax, ebx
$LN1@qt_metacal:
; Line 145
	mov	rbx, QWORD PTR [rsp+48]
	mov	rbp, QWORD PTR [rsp+56]
	mov	rsi, QWORD PTR [rsp+64]
	add	rsp, 32					; 00000020H
	pop	rdi
	ret	0
?qt_metacall@CustomControls@@UEAAHW4Call@QMetaObject@@HPEAPEAX@Z ENDP ; CustomControls::qt_metacall
_TEXT	ENDS
; Function compile flags: /Ogtpy
;	COMDAT ?qt_metacast@CustomControls@@UEAAPEAXPEBD@Z
_TEXT	SEGMENT
this$ = 8
_clname$ = 16
?qt_metacast@CustomControls@@UEAAPEAXPEBD@Z PROC	; CustomControls::qt_metacast, COMDAT
; File c:\users\dell\desktop\customcontrols\customcontrols\generatedfiles\release\moc_customcontrols.cpp
; Line 123
	mov	r9, rdx
	mov	r10, rcx
; Line 124
	test	rdx, rdx
	jne	SHORT $LN2@qt_metacas
	xor	eax, eax
; Line 128
	ret	0
$LN2@qt_metacas:
; Line 125
	lea	r8, OFFSET FLAT:?qt_meta_stringdata_CustomControls@@3Uqt_meta_stringdata_CustomControls_t@@B+264
	mov	rax, r9
	sub	r8, r9
	npad	5
$LL5@qt_metacas:
	movzx	edx, BYTE PTR [rax]
	movzx	ecx, BYTE PTR [rax+r8]
	sub	edx, ecx
	jne	SHORT $LN6@qt_metacas
	inc	rax
	test	ecx, ecx
	jne	SHORT $LL5@qt_metacas
$LN6@qt_metacas:
	test	edx, edx
	jne	SHORT $LN3@qt_metacas
; Line 126
	mov	rax, r10
; Line 128
	ret	0
$LN3@qt_metacas:
; Line 127
	mov	rdx, r9
	mov	rcx, r10
	rex_jmp	QWORD PTR __imp_?qt_metacast@QWidget@@UEAAPEAXPEBD@Z
?qt_metacast@CustomControls@@UEAAPEAXPEBD@Z ENDP	; CustomControls::qt_metacast
_TEXT	ENDS
; Function compile flags: /Ogtpy
;	COMDAT ?metaObject@CustomControls@@UEBAPEBUQMetaObject@@XZ
_TEXT	SEGMENT
this$ = 8
?metaObject@CustomControls@@UEBAPEBUQMetaObject@@XZ PROC ; CustomControls::metaObject, COMDAT
; File c:\users\dell\desktop\customcontrols\customcontrols\generatedfiles\release\moc_customcontrols.cpp
; Line 119
	mov	rcx, QWORD PTR [rcx+8]
	cmp	QWORD PTR [rcx+40], 0
	je	SHORT $LN3@metaObject
	rex_jmp	QWORD PTR __imp_?dynamicMetaObject@QObjectData@@QEBAPEAUQMetaObject@@XZ
$LN3@metaObject:
	lea	rax, OFFSET FLAT:?staticMetaObject@CustomControls@@2UQMetaObject@@B ; CustomControls::staticMetaObject
; Line 120
	ret	0
?metaObject@CustomControls@@UEBAPEBUQMetaObject@@XZ ENDP ; CustomControls::metaObject
_TEXT	ENDS
; Function compile flags: /Ogtpy
;	COMDAT ??C?$QScopedPointer@VQObjectData@@U?$QScopedPointerDeleter@VQObjectData@@@@@@QEBAPEAVQObjectData@@XZ
_TEXT	SEGMENT
this$ = 8
??C?$QScopedPointer@VQObjectData@@U?$QScopedPointerDeleter@VQObjectData@@@@@@QEBAPEAVQObjectData@@XZ PROC ; QScopedPointer<QObjectData,QScopedPointerDeleter<QObjectData> >::operator->, COMDAT
; File c:\qt\qt5.8.0\5.8\msvc2015_64\include\qtcore\qscopedpointer.h
; Line 118
	mov	rax, QWORD PTR [rcx]
; Line 119
	ret	0
??C?$QScopedPointer@VQObjectData@@U?$QScopedPointerDeleter@VQObjectData@@@@@@QEBAPEAVQObjectData@@XZ ENDP ; QScopedPointer<QObjectData,QScopedPointerDeleter<QObjectData> >::operator->
_TEXT	ENDS
END
