; Listing generated by Microsoft (R) Optimizing Compiler Version 19.00.24215.1 

include listing.inc

INCLUDELIB MSVCRT
INCLUDELIB OLDNAMES

EXTRN	__imp_?staticMetaObject@QWidget@@2UQMetaObject@@B:BYTE
CONST	SEGMENT
?qt_meta_stringdata_TriangleLabWidget@@3Uqt_meta_stringdata_TriangleLabWidget_t@@B DD 0ffffffffH ; qt_meta_stringdata_TriangleLabWidget
	DD	011H
	DD	00H
	ORG $+4
	DQ	0000000000000018H
	DB	'TriangleLabWidget', 00H
	ORG $+6
?qt_meta_data_TriangleLabWidget@@3QBIB DD 07H		; qt_meta_data_TriangleLabWidget
	DD	00H
	DD	00H
	DD	00H
	DD	00H
	DD	00H
	DD	00H
	DD	00H
	DD	00H
	DD	00H
	DD	00H
	DD	00H
	DD	00H
	DD	00H
	DD	00H
CONST	ENDS
PUBLIC	?metaObject@TriangleLabWidget@@UEBAPEBUQMetaObject@@XZ ; TriangleLabWidget::metaObject
PUBLIC	?qt_metacast@TriangleLabWidget@@UEAAPEAXPEBD@Z	; TriangleLabWidget::qt_metacast
PUBLIC	?qt_metacall@TriangleLabWidget@@UEAAHW4Call@QMetaObject@@HPEAPEAX@Z ; TriangleLabWidget::qt_metacall
PUBLIC	?qt_static_metacall@TriangleLabWidget@@CAXPEAVQObject@@W4Call@QMetaObject@@HPEAPEAX@Z ; TriangleLabWidget::qt_static_metacall
PUBLIC	?staticMetaObject@TriangleLabWidget@@2UQMetaObject@@B ; TriangleLabWidget::staticMetaObject
EXTRN	__imp_?dynamicMetaObject@QObjectData@@QEBAPEAUQMetaObject@@XZ:PROC
EXTRN	__imp_?qt_metacast@QWidget@@UEAAPEAXPEBD@Z:PROC
EXTRN	__imp_?qt_metacall@QWidget@@UEAAHW4Call@QMetaObject@@HPEAPEAX@Z:PROC
CRT$XCU	SEGMENT
??staticMetaObject$initializer$@TriangleLabWidget@@2P6AXXZEA@@3P6AXXZEA DQ FLAT:??__E?staticMetaObject@TriangleLabWidget@@2UQMetaObject@@B@@YAXXZ ; ??staticMetaObject$initializer$@TriangleLabWidget@@2P6AXXZEA@@3P6AXXZEA
CRT$XCU	ENDS
_DATA	SEGMENT
?staticMetaObject@TriangleLabWidget@@2UQMetaObject@@B DB 8 DUP(00H) ; TriangleLabWidget::staticMetaObject
	DQ	FLAT:?qt_meta_stringdata_TriangleLabWidget@@3Uqt_meta_stringdata_TriangleLabWidget_t@@B
	DQ	FLAT:?qt_meta_data_TriangleLabWidget@@3QBIB
	DQ	FLAT:?qt_static_metacall@TriangleLabWidget@@CAXPEAVQObject@@W4Call@QMetaObject@@HPEAPEAX@Z
	DQ	0000000000000000H
	DQ	0000000000000000H
_DATA	ENDS
; Function compile flags: /Ogtpy
;	COMDAT ??__E?staticMetaObject@TriangleLabWidget@@2UQMetaObject@@B@@YAXXZ
text$di	SEGMENT
??__E?staticMetaObject@TriangleLabWidget@@2UQMetaObject@@B@@YAXXZ PROC ; `dynamic initializer for 'TriangleLabWidget::staticMetaObject'', COMDAT
; File c:\users\dell\desktop\customcontrols\customcontrols\generatedfiles\release\moc_trianglelabwidget.cpp
; Line 66
	mov	rax, QWORD PTR __imp_?staticMetaObject@QWidget@@2UQMetaObject@@B
	mov	QWORD PTR ?staticMetaObject@TriangleLabWidget@@2UQMetaObject@@B, rax
; Line 67
	ret	0
??__E?staticMetaObject@TriangleLabWidget@@2UQMetaObject@@B@@YAXXZ ENDP ; `dynamic initializer for 'TriangleLabWidget::staticMetaObject''
text$di	ENDS
; Function compile flags: /Ogtpy
;	COMDAT ?qt_static_metacall@TriangleLabWidget@@CAXPEAVQObject@@W4Call@QMetaObject@@HPEAPEAX@Z
_TEXT	SEGMENT
_o$ = 8
_c$ = 16
_id$ = 24
_a$ = 32
?qt_static_metacall@TriangleLabWidget@@CAXPEAVQObject@@W4Call@QMetaObject@@HPEAPEAX@Z PROC ; TriangleLabWidget::qt_static_metacall, COMDAT
; File c:\users\dell\desktop\customcontrols\customcontrols\generatedfiles\release\moc_trianglelabwidget.cpp
; Line 63
	ret	0
?qt_static_metacall@TriangleLabWidget@@CAXPEAVQObject@@W4Call@QMetaObject@@HPEAPEAX@Z ENDP ; TriangleLabWidget::qt_static_metacall
_TEXT	ENDS
; Function compile flags: /Ogtpy
;	COMDAT ?qt_metacall@TriangleLabWidget@@UEAAHW4Call@QMetaObject@@HPEAPEAX@Z
_TEXT	SEGMENT
this$ = 8
_c$ = 16
_id$ = 24
_a$ = 32
?qt_metacall@TriangleLabWidget@@UEAAHW4Call@QMetaObject@@HPEAPEAX@Z PROC ; TriangleLabWidget::qt_metacall, COMDAT
; File c:\users\dell\desktop\customcontrols\customcontrols\generatedfiles\release\moc_trianglelabwidget.cpp
; Line 86
	rex_jmp	QWORD PTR __imp_?qt_metacall@QWidget@@UEAAHW4Call@QMetaObject@@HPEAPEAX@Z
?qt_metacall@TriangleLabWidget@@UEAAHW4Call@QMetaObject@@HPEAPEAX@Z ENDP ; TriangleLabWidget::qt_metacall
_TEXT	ENDS
; Function compile flags: /Ogtpy
;	COMDAT ?qt_metacast@TriangleLabWidget@@UEAAPEAXPEBD@Z
_TEXT	SEGMENT
this$ = 8
_clname$ = 16
?qt_metacast@TriangleLabWidget@@UEAAPEAXPEBD@Z PROC	; TriangleLabWidget::qt_metacast, COMDAT
; File c:\users\dell\desktop\customcontrols\customcontrols\generatedfiles\release\moc_trianglelabwidget.cpp
; Line 77
	mov	r9, rdx
	mov	r10, rcx
; Line 78
	test	rdx, rdx
	jne	SHORT $LN2@qt_metacas
	xor	eax, eax
; Line 82
	ret	0
$LN2@qt_metacas:
; Line 79
	lea	r8, OFFSET FLAT:?qt_meta_stringdata_TriangleLabWidget@@3Uqt_meta_stringdata_TriangleLabWidget_t@@B+24
	mov	rax, r9
	sub	r8, r9
	npad	5
$LL5@qt_metacas:
	movzx	edx, BYTE PTR [rax]
	movzx	ecx, BYTE PTR [rax+r8]
	sub	edx, ecx
	jne	SHORT $LN6@qt_metacas
	inc	rax
	test	ecx, ecx
	jne	SHORT $LL5@qt_metacas
$LN6@qt_metacas:
	test	edx, edx
	jne	SHORT $LN3@qt_metacas
; Line 80
	mov	rax, r10
; Line 82
	ret	0
$LN3@qt_metacas:
; Line 81
	mov	rdx, r9
	mov	rcx, r10
	rex_jmp	QWORD PTR __imp_?qt_metacast@QWidget@@UEAAPEAXPEBD@Z
?qt_metacast@TriangleLabWidget@@UEAAPEAXPEBD@Z ENDP	; TriangleLabWidget::qt_metacast
_TEXT	ENDS
; Function compile flags: /Ogtpy
;	COMDAT ?metaObject@TriangleLabWidget@@UEBAPEBUQMetaObject@@XZ
_TEXT	SEGMENT
this$ = 8
?metaObject@TriangleLabWidget@@UEBAPEBUQMetaObject@@XZ PROC ; TriangleLabWidget::metaObject, COMDAT
; File c:\users\dell\desktop\customcontrols\customcontrols\generatedfiles\release\moc_trianglelabwidget.cpp
; Line 73
	mov	rcx, QWORD PTR [rcx+8]
	cmp	QWORD PTR [rcx+40], 0
	je	SHORT $LN3@metaObject
	rex_jmp	QWORD PTR __imp_?dynamicMetaObject@QObjectData@@QEBAPEAUQMetaObject@@XZ
$LN3@metaObject:
	lea	rax, OFFSET FLAT:?staticMetaObject@TriangleLabWidget@@2UQMetaObject@@B ; TriangleLabWidget::staticMetaObject
; Line 74
	ret	0
?metaObject@TriangleLabWidget@@UEBAPEBUQMetaObject@@XZ ENDP ; TriangleLabWidget::metaObject
_TEXT	ENDS
; Function compile flags: /Ogtpy
;	COMDAT ??C?$QScopedPointer@VQObjectData@@U?$QScopedPointerDeleter@VQObjectData@@@@@@QEBAPEAVQObjectData@@XZ
_TEXT	SEGMENT
this$ = 8
??C?$QScopedPointer@VQObjectData@@U?$QScopedPointerDeleter@VQObjectData@@@@@@QEBAPEAVQObjectData@@XZ PROC ; QScopedPointer<QObjectData,QScopedPointerDeleter<QObjectData> >::operator->, COMDAT
; File c:\qt\qt5.8.0\5.8\msvc2015_64\include\qtcore\qscopedpointer.h
; Line 118
	mov	rax, QWORD PTR [rcx]
; Line 119
	ret	0
??C?$QScopedPointer@VQObjectData@@U?$QScopedPointerDeleter@VQObjectData@@@@@@QEBAPEAVQObjectData@@XZ ENDP ; QScopedPointer<QObjectData,QScopedPointerDeleter<QObjectData> >::operator->
_TEXT	ENDS
END
