; Listing generated by Microsoft (R) Optimizing Compiler Version 19.00.24215.1 

include listing.inc

INCLUDELIB MSVCRT
INCLUDELIB OLDNAMES

PUBLIC	?__LINE__Var@?0???0initializer@?A0xac5a854a@@QEAA@XZ@4JA ; ``anonymous namespace'::initializer::initializer'::`1'::__LINE__Var
PUBLIC	?__LINE__Var@?0???1initializer@?A0xac5a854a@@QEAA@XZ@4JA ; ``anonymous namespace'::initializer::~initializer'::`1'::__LINE__Var
;	COMDAT ?__LINE__Var@?0???1initializer@?A0xac5a854a@@QEAA@XZ@4JA
_DATA	SEGMENT
?__LINE__Var@?0???1initializer@?A0xac5a854a@@QEAA@XZ@4JA DD 0acH ; ``anonymous namespace'::initializer::~initializer'::`1'::__LINE__Var
_DATA	ENDS
;	COMDAT ?__LINE__Var@?0???0initializer@?A0xac5a854a@@QEAA@XZ@4JA
_DATA	SEGMENT
?__LINE__Var@?0???0initializer@?A0xac5a854a@@QEAA@XZ@4JA DD 0abH ; ``anonymous namespace'::initializer::initializer'::`1'::__LINE__Var
_DATA	ENDS
CONST	SEGMENT
?qt_resource_data@@3QBEB DB 00H				; qt_resource_data
	DB	00H
	DB	02H
	DB	03eH
	DB	00H
	DB	00H
	DB	0cH
	DB	08eH
	DB	078H
	DB	09cH
	DB	0ebH
	DB	0cH
	DB	0f0H
	DB	073H
	DB	0e7H
	DB	0e5H
	DB	092H
	DB	0e2H
	DB	062H
	DB	060H
	DB	060H
	DB	0e0H
	DB	0f5H
	DB	0f4H
	DB	070H
	DB	09H
	DB	062H
	DB	060H
	DB	060H
	DB	06aH
	DB	07H
	DB	0e2H
	DB	064H
	DB	0eH
	DB	036H
	DB	0a0H
	DB	048H
	DB	0ddH
	DB	0c1H
	DB	0ddH
	DB	065H
	DB	0cH
	DB	0cH
	DB	03cH
	DB	0a1H
	DB	09eH
	DB	02eH
	DB	08eH
	DB	021H
	DB	015H
	DB	073H
	DB	0deH
	DB	0deH
	DB	0d8H
	DB	0d8H
	DB	0abH
	DB	0edH
	DB	029H
	DB	0c0H
	DB	07aH
	DB	0f0H
	DB	071H
	DB	0e3H
	DB	0b6H
	DB	02dH
	DB	0ffH
	DB	0dfH
	DB	0e5H
	DB	058H
	DB	01fH
	DB	0f6H
	DB	017H
	DB	04aH
	DB	060H
	DB	05aH
	DB	03cH
	DB	0e5H
	DB	096H
	DB	0b2H
	DB	04bH
	DB	044H
	DB	040H
	DB	045H
	DB	0d0H
	DB	022H
	DB	0b9H
	DB	0faH
	DB	0faH
	DB	0faH
	DB	0f5H
	DB	0ffH
	DB	0f3H
	DB	012H
	DB	0d6H
	DB	096H
	DB	0feH
	DB	06aH
	DB	0e9H
	DB	0deH
	DB	0fbH
	DB	0fdH
	DB	0a5H
	DB	0b0H
	DB	0deH
	DB	01bH
	DB	0e3H
	DB	0cdH
	DB	0e7H
	DB	0cfH
	DB	0d8H
	DB	019H
	DB	0ffH
	DB	03eH
	DB	03H
	DB	061H
	DB	06cH
	DB	0b6H
	DB	07eH
	DB	0f7H
	DB	0f9H
	DB	0ffH
	DB	04bH
	DB	065H
	DB	06H
	DB	086H
	DB	01dH
	DB	0fcH
	DB	085H
	DB	01cH
	DB	0cH
	DB	0eH
	DB	047H
	DB	014H
	DB	019H
	DB	018H
	DB	04H
	DB	081H
	DB	096H
	DB	0b9H
	DB	0c8H
	DB	030H
	DB	031H
	DB	08H
	DB	0cH
	DB	0a0H
	DB	080H
	DB	0dcH
	DB	0faH
	DB	0edH
	DB	097H
	DB	0ddH
	DB	06bH
	DB	0deH
	DB	0ecH
	DB	0f5H
	DB	09fH
	DB	05fH
	DB	0b0H
	DB	0f1H
	DB	09aH
	DB	055H
	DB	0edH
	DB	0a1H
	DB	0d6H
	DB	0daH
	DB	0b4H
	DB	06fH
	DB	033H
	DB	06fH
	DB	0a6H
	DB	0a7H
	DB	0cdH
	DB	09fH
	DB	09H
	DB	061H
	DB	094H
	DB	01dH
	DB	0afH
	DB	0adH
	DB	0e1H
	DB	063H
	DB	064H
	DB	0e8H
	DB	0b0H
	DB	060H
	DB	061H
	DB	050H
	DB	078H
	DB	024H
	DB	0c0H
	DB	0d0H
	DB	0d0H
	DB	0e1H
	DB	0ccH
	DB	0c0H
	DB	0a0H
	DB	034H
	DB	08H
	DB	04H
	DB	06cH
	DB	0beH
	DB	0dfH
	DB	05bH
	DB	09eH
	DB	0ffH
	DB	023H
	DB	02aH
	DB	07bH
	DB	0aeH
	DB	0ddH
	DB	0c3H
	DB	047H
	DB	07aH
	DB	0bbH
	DB	0ffH
	DB	0dcH
	DB	040H
	DB	0b8H
	DB	018H
	DB	0ccH
	DB	028H
	DB	0bfH
	DB	073H
	DB	0fcH
	DB	0f9H
	DB	020H
	DB	072H
	DB	02dH
	DB	04cH
	DB	0e0H
	DB	0c4H
	DB	0e3H
	DB	0afH
	DB	065H
	DB	0bfH
	DB	03aH
	DB	0faH
	DB	0c1H
	DB	0e9H
	DB	0e3H
	DB	05aH
	DB	0d4H
	DB	072H
	DB	0ffH
	DB	01dH
	DB	01bH
	DB	090H
	DB	093H
	DB	08H
	DB	090H
	DB	0f1H
	DB	06eH
	DB	047H
	DB	0ffH
	DB	0f9H
	DB	041H
	DB	092H
	DB	032H
	DB	090H
	DB	05H
	DB	026H
	DB	03cH
	DB	0bfH
	DB	0f7H
	DB	0fbH
	DB	0bH
	DB	06fH
	DB	07cH
	DB	0f6H
	DB	0daH
	DB	0cbH
	DB	0eaH
	DB	031H
	DB	077H
	DB	052H
	DB	0a7H
	DB	0cbH
	DB	023H
	DB	0b9H
	DB	018H
	DB	0c4H
	DB	078H
	DB	0d3H
	DB	0f7H
	DB	0fbH
	DB	0c7H
	DB	020H
	DB	072H
	DB	02dH
	DB	05cH
	DB	0a0H
	DB	072H
	DB	0cfH
	DB	03dH
	DB	03fH
	DB	0f9H
	DB	08fH
	DB	01bH
	DB	0bfH
	DB	0dbH
	DB	0d5H
	DB	01eH
	DB	03aH
	DB	01aH
	DB	0f5H
	DB	0faH
	DB	0bH
	DB	0a7H
	DB	038H
	DB	04aH
	DB	0d2H
	DB	04eH
	DB	09bH
	DB	07fH
	DB	053H
	DB	0f6H
	DB	0fbH
	DB	047H
	DB	0cbH
	DB	0c1H
	DB	091H
	DB	032H
	DB	050H
	DB	04H
	DB	03eH
	DB	0ddH
	DB	0a9H
	DB	09eH
	DB	0bfH
	DB	0efH
	DB	061H
	DB	036H
	DB	0b8H
	DB	02cH
	DB	0d9H
	DB	0fdH
	DB	0e6H
	DB	053H
	DB	032H
	DB	04aH
	DB	0d2H
	DB	0feH
	DB	036H
	DB	0f3H
	DB	06eH
	DB	0a1H
	DB	0fcH
	DB	0fcH
	DB	041H
	DB	0e4H
	DB	05aH
	DB	0b8H
	DB	040H
	DB	0ffH
	DB	0f5H
	DB	0dbH
	DB	02fH
	DB	095H
	DB	0edH
	DB	0beH
	DB	0ddH
	DB	03H
	DB	0a6H
	DB	0ebH
	DB	08H
	DB	050H
	DB	0c6H
	DB	03cH
	DB	084H
	DB	092H
	DB	0b4H
	DB	0dfH
	DB	018H
	DB	0efH
	DB	07eH
	DB	06cH
	DB	067H
	DB	037H
	DB	048H
	DB	052H
	DB	06H
	DB	08aH
	DB	0c0H
	DB	0bcH
	DB	0eaH
	DB	0f7H
	DB	097H
	DB	0cdH
	DB	06bH
	DB	0d6H
	DB	06eH
	DB	0f5H
	DB	09bH
	DB	05fH
	DB	050H
	DB	038H
	DB	03dH
	DB	0b6H
	DB	0eH
	DB	0b3H
	DB	0e0H
	DB	07eH
	DB	05cH
	DB	03cH
	DB	088H
	DB	05cH
	DB	0bH
	DB	013H
	DB	078H
	DB	0f2H
	DB	0b1H
	DB	0caH
	DB	0baH
	DB	0f6H
	DB	0c8H
	DB	071H
	DB	060H
	DB	0c6H
	DB	0e4H
	DB	014H
	DB	07H
	DB	067H
	DB	0ccH
	DB	0a1H
	DB	052H
	DB	06H
	DB	016H
	DB	0bfH
	DB	0afH
	DB	0fdH
	DB	0d5H
	DB	0b6H
	DB	07eH
	DB	0ebH
	DB	035H
	DB	060H
	DB	019H
	DB	0f8H
	DB	06eH
	DB	0d3H
	DB	0e9H
	DB	0feH
	DB	0a1H
	DB	052H
	DB	0e1H
	DB	0c4H
	DB	0e5H
	DB	02fH
	DB	0efH
	DB	0ffH
	DB	071H
	DB	0a3H
	DB	07aH
	DB	0beH
	DB	0ddH
	DB	0c3H
	DB	024H
	DB	050H
	DB	0c6H
	DB	0e4H
	DB	01eH
	DB	02aH
	DB	065H
	DB	0e0H
	DB	0bbH
	DB	0bdH
	DB	0feH
	DB	0f7H
	DB	03fH
	DB	06cH
	DB	05H
	DB	0d5H
	DB	0edH
	DB	047H
	DB	063H
	DB	0cbH
	DB	07eH
	DB	06eH
	DB	01cH
	DB	022H
	DB	015H
	DB	0ceH
	DB	0f1H
	DB	0d7H
	DB	06fH
	DB	0bfH
	DB	08H
	DB	0caH
	DB	03H
	DB	033H
	DB	0a6H
	DB	07aH
	DB	0ccH
	DB	01aH
	DB	050H
	DB	0c6H
	DB	04cH
	DB	01cH
	DB	022H
	DB	065H
	DB	0e0H
	DB	079H
	DB	060H
	DB	0ddH
	DB	02eH
	DB	0bdH
	DB	0fH
	DB	05cH
	DB	0b7H
	DB	0efH
	DB	038H
	DB	0adH
	DB	067H
	DB	03fH
	DB	054H
	DB	02aH
	DB	09cH
	DB	08aH
	DB	0bdH
	DB	073H
	DB	0edH
	DB	01eH
	DB	025H
	DB	03H
	DB	033H
	DB	066H
	DB	04bH
	DB	037H
	DB	038H
	DB	063H
	DB	0eH
	DB	095H
	DB	032H
	DB	070H
	DB	027H
	DB	0b0H
	DB	06eH
	DB	03fH
	DB	07cH
	DB	01dH
	DB	05cH
	DB	0b7H
	DB	097H
	DB	0dfH
	DB	07cH
	DB	07aH
	DB	07cH
	DB	088H
	DB	054H
	DB	038H
	DB	0ffH
	DB	018H
	DB	0a7H
	DB	04dH
	DB	064H
	DB	03fH
	DB	016H
	DB	0efH
	DB	0e4H
	DB	0f9H
	DB	06H
	DB	0d8H
	DB	0cfH
	DB	060H
	DB	0f0H
	DB	074H
	DB	0f5H
	DB	073H
	DB	059H
	DB	0e7H
	DB	094H
	DB	0d0H
	DB	04H
	DB	00H
	DB	06cH
	DB	0e6H
	DB	049H
	DB	097H
	DB	00H
	DB	00H
	DB	01H
	DB	0e1H
	DB	089H
	DB	050H
	DB	04eH
	DB	047H
	DB	0dH
	DB	0aH
	DB	01aH
	DB	0aH
	DB	00H
	DB	00H
	DB	00H
	DB	0dH
	DB	049H
	DB	048H
	DB	044H
	DB	052H
	DB	00H
	DB	00H
	DB	00H
	DB	014H
	DB	00H
	DB	00H
	DB	00H
	DB	014H
	DB	08H
	DB	03H
	DB	00H
	DB	00H
	DB	00H
	DB	0baH
	DB	057H
	DB	0edH
	DB	03fH
	DB	00H
	DB	00H
	DB	00H
	DB	0bdH
	DB	050H
	DB	04cH
	DB	054H
	DB	045H
	DB	0ffH
	DB	0ffH
	DB	0ffH
	DB	0ffH
	DB	0ffH
	DB	0ffH
	DB	0ffH
	DB	0ffH
	DB	0ffH
	DB	0ffH
	DB	0ffH
	DB	0ffH
	DB	0ffH
	DB	0ffH
	DB	0ffH
	DB	0ffH
	DB	0ffH
	DB	0ffH
	DB	0ffH
	DB	0ffH
	DB	0ffH
	DB	0ffH
	DB	0ffH
	DB	0ffH
	DB	0ffH
	DB	0ffH
	DB	0ffH
	DB	0ffH
	DB	0ffH
	DB	0ffH
	DB	0ffH
	DB	0ffH
	DB	0ffH
	DB	0ffH
	DB	0ffH
	DB	0ffH
	DB	0ffH
	DB	0ffH
	DB	0ffH
	DB	0ffH
	DB	0ffH
	DB	0ffH
	DB	0ffH
	DB	0ffH
	DB	0ffH
	DB	0ffH
	DB	0ffH
	DB	0ffH
	DB	0ffH
	DB	0ffH
	DB	0ffH
	DB	0ffH
	DB	0ffH
	DB	0ffH
	DB	0ffH
	DB	0ffH
	DB	0ffH
	DB	0ffH
	DB	0ffH
	DB	0ffH
	DB	0ffH
	DB	0ffH
	DB	0ffH
	DB	0ffH
	DB	0ffH
	DB	0ffH
	DB	0ffH
	DB	0ffH
	DB	0ffH
	DB	0ffH
	DB	0ffH
	DB	0ffH
	DB	0ffH
	DB	0ffH
	DB	0ffH
	DB	0ffH
	DB	0ffH
	DB	0ffH
	DB	0ffH
	DB	0ffH
	DB	0ffH
	DB	0ffH
	DB	0ffH
	DB	0ffH
	DB	0ffH
	DB	0ffH
	DB	0ffH
	DB	0ffH
	DB	0ffH
	DB	0ffH
	DB	0ffH
	DB	0ffH
	DB	0ffH
	DB	0ffH
	DB	0ffH
	DB	0ffH
	DB	0ffH
	DB	0ffH
	DB	0ffH
	DB	0ffH
	DB	0ffH
	DB	0ffH
	DB	0ffH
	DB	0ffH
	DB	0ffH
	DB	0ffH
	DB	0ffH
	DB	0ffH
	DB	0ffH
	DB	0ffH
	DB	0ffH
	DB	0ffH
	DB	0ffH
	DB	0ffH
	DB	0ffH
	DB	0ffH
	DB	0ffH
	DB	0ffH
	DB	0ffH
	DB	0ffH
	DB	0ffH
	DB	0ffH
	DB	0ffH
	DB	0ffH
	DB	0ffH
	DB	0ffH
	DB	0ffH
	DB	0ffH
	DB	0ffH
	DB	0ffH
	DB	0ffH
	DB	0ffH
	DB	0ffH
	DB	0ffH
	DB	0ffH
	DB	0ffH
	DB	0ffH
	DB	0ffH
	DB	0ffH
	DB	0ffH
	DB	0ffH
	DB	0ffH
	DB	0ffH
	DB	0ffH
	DB	0ffH
	DB	0ffH
	DB	0ffH
	DB	0ffH
	DB	0ffH
	DB	0ffH
	DB	0ffH
	DB	0ffH
	DB	0ffH
	DB	0ffH
	DB	0ffH
	DB	0ffH
	DB	0ffH
	DB	0ffH
	DB	0ffH
	DB	0ffH
	DB	0ffH
	DB	0ffH
	DB	0ffH
	DB	0ffH
	DB	0ffH
	DB	0ffH
	DB	0ffH
	DB	0ffH
	DB	0ffH
	DB	0ffH
	DB	0ffH
	DB	0ffH
	DB	0ffH
	DB	0ffH
	DB	0ffH
	DB	0ffH
	DB	0ffH
	DB	0ffH
	DB	0ffH
	DB	0ffH
	DB	0ffH
	DB	0ffH
	DB	0ffH
	DB	0ffH
	DB	0ffH
	DB	0ffH
	DB	0ffH
	DB	0ffH
	DB	0ffH
	DB	0e3H
	DB	04aH
	DB	0baH
	DB	090H
	DB	00H
	DB	00H
	DB	00H
	DB	03fH
	DB	074H
	DB	052H
	DB	04eH
	DB	053H
	DB	00H
	DB	08H
	DB	037H
	DB	050H
	DB	05cH
	DB	045H
	DB	012H
	DB	0abH
	DB	0f3H
	DB	0ffH
	DB	0fbH
	DB	0beH
	DB	055H
	DB	01H
	DB	05H
	DB	096H
	DB	0feH
	DB	0c0H
	DB	016H
	DB	0aH
	DB	0e2H
	DB	024H
	DB	0adH
	DB	0dbH
	DB	0eH
	DB	052H
	DB	08cH
	DB	0d8H
	DB	0f8H
	DB	01bH
	DB	039H
	DB	075H
	DB	079H
	DB	0b3H
	DB	09dH
	DB	0d9H
	DB	0a5H
	DB	0e1H
	DB	093H
	DB	0cdH
	DB	062H
	DB	0fdH
	DB	04fH
	DB	0acH
	DB	0dfH
	DB	06H
	DB	0f9H
	DB	05aH
	DB	066H
	DB	0a2H
	DB	073H
	DB	0a6H
	DB	041H
	DB	0eeH
	DB	067H
	DB	03H
	DB	054H
	DB	0a8H
	DB	0f6H
	DB	0eaH
	DB	0b7H
	DB	06bH
	DB	0dH
	DB	034H
	DB	0bH
	DB	0b7H
	DB	0a9H
	DB	00H
	DB	00H
	DB	00H
	DB	094H
	DB	049H
	DB	044H
	DB	041H
	DB	054H
	DB	018H
	DB	0d3H
	DB	065H
	DB	0d0H
	DB	0d7H
	DB	012H
	DB	082H
	DB	030H
	DB	010H
	DB	085H
	DB	0e1H
	DB	023H
	DB	0d6H
	DB	055H
	DB	051H
	DB	041H
	DB	011H
	DB	07bH
	DB	01H
	DB	0bbH
	DB	062H
	DB	0efH
	DB	0edH
	DB	0fdH
	DB	01fH
	DB	04bH
	DB	024H
	DB	0c6H
	DB	09H
	DB	0d9H
	DB	0ffH
	DB	02eH
	DB	0dfH
	DB	0c5H
	DB	0ceH
	DB	0e4H
	DB	00H
	DB	0a2H
	DB	084H
	DB	091H
	DB	04cH
	DB	0a5H
	DB	033H
	DB	050H
	DB	033H
	DB	0b2H
	DB	039H
	DB	0aH
	DB	0cbH
	DB	017H
	DB	08aH
	DB	0a6H
	DB	0a4H
	DB	052H
	DB	0b9H
	DB	042H
	DB	032H
	DB	0cbH
	DB	016H
	DB	056H
	DB	0b5H
	DB	048H
	DB	0a9H
	DB	0e6H
	DB	044H
	DB	058H
	DB	0a7H
	DB	058H
	DB	06eH
	DB	023H
	DB	0b4H
	DB	026H
	DB	069H
	DB	0b5H
	DB	00H
	DB	0b3H
	DB	0adH
	DB	063H
	DB	0a7H
	DB	08bH
	DB	01eH
	DB	0b1H
	DB	0faH
	DB	018H
	DB	070H
	DB	01cH
	DB	0c2H
	DB	0e3H
	DB	0e8H
	DB	063H
	DB	0c4H
	DB	071H
	DB	08cH
	DB	09H
	DB	0c7H
	DB	029H
	DB	066H
	DB	01cH
	DB	03dH
	DB	0d8H
	DB	073H
	DB	086H
	DB	0bH
	DB	060H
	DB	0a9H
	DB	0dbH
	DB	02aH
	DB	00H
	DB	09cH
	DB	0b5H
	DB	086H
	DB	09bH
	DB	0efH
	DB	0dfH
	DB	0b7H
	DB	071H
	DB	0dbH
	DB	089H
	DB	099H
	DB	0f6H
	DB	0eaH
	DB	0d9H
	DB	043H
	DB	0f0H
	DB	01bH
	DB	0f4H
	DB	0e8H
	DB	04bH
	DB	03aH
	DB	09dH
	DB	0ffH
	DB	02bH
	DB	0e3H
	DB	072H
	DB	0bdH
	DB	0b9H
	DB	077H
	DB	07aH
	DB	03cH
	DB	05fH
	DB	0efH
	DB	0e8H
	DB	0f9H
	DB	01H
	DB	03H
	DB	062H
	DB	011H
	DB	0ccH
	DB	0e4H
	DB	0aeH
	DB	013H
	DB	020H
	DB	00H
	DB	00H
	DB	00H
	DB	00H
	DB	049H
	DB	045H
	DB	04eH
	DB	044H
	DB	0aeH
	DB	042H
	DB	060H
	DB	082H
	ORG $+9
?qt_resource_name@@3QBEB DB 00H				; qt_resource_name
	DB	0eH
	DB	0fH
	DB	0dH
	DB	047H
	DB	0d3H
	DB	00H
	DB	043H
	DB	00H
	DB	075H
	DB	00H
	DB	073H
	DB	00H
	DB	074H
	DB	00H
	DB	06fH
	DB	00H
	DB	06dH
	DB	00H
	DB	043H
	DB	00H
	DB	06fH
	DB	00H
	DB	06eH
	DB	00H
	DB	074H
	DB	00H
	DB	072H
	DB	00H
	DB	06fH
	DB	00H
	DB	06cH
	DB	00H
	DB	073H
	DB	00H
	DB	07H
	DB	06H
	DB	0faH
	DB	0bcH
	DB	065H
	DB	00H
	DB	070H
	DB	00H
	DB	069H
	DB	00H
	DB	063H
	DB	00H
	DB	074H
	DB	00H
	DB	075H
	DB	00H
	DB	072H
	DB	00H
	DB	065H
	DB	00H
	DB	0eH
	DB	07H
	DB	04H
	DB	09fH
	DB	087H
	DB	00H
	DB	062H
	DB	00H
	DB	061H
	DB	00H
	DB	063H
	DB	00H
	DB	06bH
	DB	00H
	DB	067H
	DB	00H
	DB	072H
	DB	00H
	DB	06fH
	DB	00H
	DB	075H
	DB	00H
	DB	06eH
	DB	00H
	DB	064H
	DB	00H
	DB	02eH
	DB	00H
	DB	070H
	DB	00H
	DB	06eH
	DB	00H
	DB	067H
	DB	00H
	DB	0aH
	DB	0aH
	DB	0c8H
	DB	087H
	DB	0c7H
	DB	00H
	DB	068H
	DB	00H
	DB	061H
	DB	00H
	DB	06eH
	DB	00H
	DB	064H
	DB	00H
	DB	065H
	DB	00H
	DB	072H
	DB	00H
	DB	02eH
	DB	00H
	DB	070H
	DB	00H
	DB	06eH
	DB	00H
	DB	067H
	ORG $+14
?qt_resource_struct@@3QBEB DB 00H			; qt_resource_struct
	DB	00H
	DB	00H
	DB	00H
	DB	00H
	DB	02H
	DB	00H
	DB	00H
	DB	00H
	DB	01H
	DB	00H
	DB	00H
	DB	00H
	DB	01H
	DB	00H
	DB	00H
	DB	00H
	DB	00H
	DB	00H
	DB	00H
	DB	00H
	DB	00H
	DB	00H
	DB	00H
	DB	00H
	DB	00H
	DB	00H
	DB	02H
	DB	00H
	DB	00H
	DB	00H
	DB	01H
	DB	00H
	DB	00H
	DB	00H
	DB	02H
	DB	00H
	DB	00H
	DB	00H
	DB	00H
	DB	00H
	DB	00H
	DB	00H
	DB	00H
	DB	00H
	DB	00H
	DB	00H
	DB	022H
	DB	00H
	DB	02H
	DB	00H
	DB	00H
	DB	00H
	DB	02H
	DB	00H
	DB	00H
	DB	00H
	DB	03H
	DB	00H
	DB	00H
	DB	00H
	DB	00H
	DB	00H
	DB	00H
	DB	00H
	DB	00H
	DB	00H
	DB	00H
	DB	00H
	DB	036H
	DB	00H
	DB	01H
	DB	00H
	DB	00H
	DB	00H
	DB	01H
	DB	00H
	DB	00H
	DB	00H
	DB	00H
	DB	00H
	DB	00H
	DB	01H
	DB	06bH
	DB	0b1H
	DB	0b6H
	DB	019H
	DB	0e7H
	DB	00H
	DB	00H
	DB	00H
	DB	058H
	DB	00H
	DB	00H
	DB	00H
	DB	00H
	DB	00H
	DB	01H
	DB	00H
	DB	00H
	DB	02H
	DB	042H
	DB	00H
	DB	00H
	DB	01H
	DB	06bH
	DB	0bfH
	DB	0c5H
	DB	072H
	DB	055H
CONST	ENDS
PUBLIC	?qInitResources_CustomControls@@YAHXZ		; qInitResources_CustomControls
PUBLIC	?qCleanupResources_CustomControls@@YAHXZ	; qCleanupResources_CustomControls
PUBLIC	?dummy@?A0xac5a854a@@3Uinitializer@1@A		; `anonymous namespace'::dummy
EXTRN	atexit:PROC
EXTRN	__std_terminate:PROC
EXTRN	?qRegisterResourceData@@YA_NHPEBE00@Z:PROC	; qRegisterResourceData
EXTRN	?qUnregisterResourceData@@YA_NHPEBE00@Z:PROC	; qUnregisterResourceData
EXTRN	__CxxFrameHandler3:PROC
_BSS	SEGMENT
?dummy@?A0xac5a854a@@3Uinitializer@1@A DB 01H DUP (?)	; `anonymous namespace'::dummy
_BSS	ENDS
;	COMDAT pdata
pdata	SEGMENT
$pdata$?qInitResources_CustomControls@@YAHXZ DD imagerel $LN4
	DD	imagerel $LN4+45
	DD	imagerel $unwind$?qInitResources_CustomControls@@YAHXZ
pdata	ENDS
;	COMDAT pdata
pdata	SEGMENT
$pdata$?qCleanupResources_CustomControls@@YAHXZ DD imagerel $LN4
	DD	imagerel $LN4+45
	DD	imagerel $unwind$?qCleanupResources_CustomControls@@YAHXZ
pdata	ENDS
;	COMDAT pdata
pdata	SEGMENT
$pdata$??0initializer@?A0xac5a854a@@QEAA@XZ DD imagerel ??0initializer@?A0xac5a854a@@QEAA@XZ
	DD	imagerel ??0initializer@?A0xac5a854a@@QEAA@XZ+49
	DD	imagerel $unwind$??0initializer@?A0xac5a854a@@QEAA@XZ
pdata	ENDS
;	COMDAT pdata
pdata	SEGMENT
$pdata$??1initializer@?A0xac5a854a@@QEAA@XZ DD imagerel ??1initializer@?A0xac5a854a@@QEAA@XZ
	DD	imagerel ??1initializer@?A0xac5a854a@@QEAA@XZ+50
	DD	imagerel $unwind$??1initializer@?A0xac5a854a@@QEAA@XZ
pdata	ENDS
;	COMDAT pdata
pdata	SEGMENT
$pdata$??__Edummy@?A0xac5a854a@@YAXXZ DD imagerel ??__Edummy@?A0xac5a854a@@YAXXZ
	DD	imagerel ??__Edummy@?A0xac5a854a@@YAXXZ+51
	DD	imagerel $unwind$??__Edummy@?A0xac5a854a@@YAXXZ
pdata	ENDS
;	COMDAT pdata
pdata	SEGMENT
$pdata$??__Fdummy@?A0xac5a854a@@YAXXZ DD imagerel ??__Fdummy@?A0xac5a854a@@YAXXZ
	DD	imagerel ??__Fdummy@?A0xac5a854a@@YAXXZ+50
	DD	imagerel $unwind$??__Fdummy@?A0xac5a854a@@YAXXZ
pdata	ENDS
CRT$XCU	SEGMENT
?dummy$initializer$@?A0xac5a854a@@3P6AXXZEA DQ FLAT:??__Edummy@?A0xac5a854a@@YAXXZ ; `anonymous namespace'::dummy$initializer$
CRT$XCU	ENDS
;	COMDAT xdata
xdata	SEGMENT
$ip2state$??__Fdummy@?A0xac5a854a@@YAXXZ DD imagerel ??__Fdummy@?A0xac5a854a@@YAXXZ
	DD	0ffffffffH
	DD	imagerel ??__Fdummy@?A0xac5a854a@@YAXXZ+13
	DD	00H
	DD	imagerel ??__Fdummy@?A0xac5a854a@@YAXXZ+45
	DD	0ffffffffH
xdata	ENDS
;	COMDAT xdata
xdata	SEGMENT
$stateUnwindMap$??__Fdummy@?A0xac5a854a@@YAXXZ DD 0ffffffffH
	DD	imagerel __std_terminate
xdata	ENDS
;	COMDAT CONST
CONST	SEGMENT
$cppxdata$??__Fdummy@?A0xac5a854a@@YAXXZ DD 019930522H
	DD	01H
	DD	imagerel $stateUnwindMap$??__Fdummy@?A0xac5a854a@@YAXXZ
	DD	00H
	DD	00H
	DD	03H
	DD	imagerel $ip2state$??__Fdummy@?A0xac5a854a@@YAXXZ
	DD	020H
	DD	00H
	DD	01H
CONST	ENDS
;	COMDAT xdata
xdata	SEGMENT
$unwind$??__Fdummy@?A0xac5a854a@@YAXXZ DD 010d11H
	DD	06204H
	DD	imagerel __CxxFrameHandler3
	DD	imagerel $cppxdata$??__Fdummy@?A0xac5a854a@@YAXXZ
xdata	ENDS
;	COMDAT xdata
xdata	SEGMENT
$unwind$??__Edummy@?A0xac5a854a@@YAXXZ DD 010401H
	DD	04204H
xdata	ENDS
;	COMDAT xdata
xdata	SEGMENT
$ip2state$??1initializer@?A0xac5a854a@@QEAA@XZ DD imagerel ??1initializer@?A0xac5a854a@@QEAA@XZ
	DD	0ffffffffH
xdata	ENDS
;	COMDAT CONST
CONST	SEGMENT
$cppxdata$??1initializer@?A0xac5a854a@@QEAA@XZ DD 019930522H
	DD	00H
	DD	00H
	DD	00H
	DD	00H
	DD	01H
	DD	imagerel $ip2state$??1initializer@?A0xac5a854a@@QEAA@XZ
	DD	020H
	DD	00H
	DD	05H
CONST	ENDS
;	COMDAT xdata
xdata	SEGMENT
$unwind$??1initializer@?A0xac5a854a@@QEAA@XZ DD 010d19H
	DD	06204H
	DD	imagerel __CxxFrameHandler3
	DD	imagerel $cppxdata$??1initializer@?A0xac5a854a@@QEAA@XZ
xdata	ENDS
;	COMDAT xdata
xdata	SEGMENT
$unwind$??0initializer@?A0xac5a854a@@QEAA@XZ DD 020601H
	DD	030023206H
xdata	ENDS
;	COMDAT xdata
xdata	SEGMENT
$unwind$?qCleanupResources_CustomControls@@YAHXZ DD 010401H
	DD	04204H
xdata	ENDS
;	COMDAT xdata
xdata	SEGMENT
$unwind$?qInitResources_CustomControls@@YAHXZ DD 010401H
	DD	04204H
xdata	ENDS
; Function compile flags: /Ogtpy
;	COMDAT ??__Fdummy@?A0xac5a854a@@YAXXZ
text$yd	SEGMENT
$T1 = 32
??__Fdummy@?A0xac5a854a@@YAXXZ PROC			; `anonymous namespace'::`dynamic atexit destructor for 'dummy'', COMDAT
	sub	rsp, 56					; 00000038H
	mov	QWORD PTR $T1[rsp], -2
; File c:\users\dell\desktop\customcontrols\customcontrols\generatedfiles\qrc_customcontrols.cpp
; Line 164
	lea	r9, OFFSET FLAT:?qt_resource_data@@3QBEB
	lea	r8, OFFSET FLAT:?qt_resource_name@@3QBEB
	lea	rdx, OFFSET FLAT:?qt_resource_struct@@3QBEB
	mov	ecx, 2
	call	?qUnregisterResourceData@@YA_NHPEBE00@Z	; qUnregisterResourceData
	npad	1
	add	rsp, 56					; 00000038H
	ret	0
??__Fdummy@?A0xac5a854a@@YAXXZ ENDP			; `anonymous namespace'::`dynamic atexit destructor for 'dummy''
text$yd	ENDS
; Function compile flags: /Ogtpy
;	COMDAT ??__Edummy@?A0xac5a854a@@YAXXZ
text$di	SEGMENT
??__Edummy@?A0xac5a854a@@YAXXZ PROC			; `anonymous namespace'::`dynamic initializer for 'dummy'', COMDAT
; File c:\users\dell\desktop\customcontrols\customcontrols\generatedfiles\qrc_customcontrols.cpp
; Line 173
	sub	rsp, 40					; 00000028H
; Line 156
	lea	r9, OFFSET FLAT:?qt_resource_data@@3QBEB
	mov	ecx, 2
	lea	r8, OFFSET FLAT:?qt_resource_name@@3QBEB
	lea	rdx, OFFSET FLAT:?qt_resource_struct@@3QBEB
	call	?qRegisterResourceData@@YA_NHPEBE00@Z	; qRegisterResourceData
; Line 173
	lea	rcx, OFFSET FLAT:??__Fdummy@?A0xac5a854a@@YAXXZ ; `anonymous namespace'::`dynamic atexit destructor for 'dummy''
	add	rsp, 40					; 00000028H
	jmp	atexit
??__Edummy@?A0xac5a854a@@YAXXZ ENDP			; `anonymous namespace'::`dynamic initializer for 'dummy''
text$di	ENDS
; Function compile flags: /Ogtpy
;	COMDAT ??1initializer@?A0xac5a854a@@QEAA@XZ
_TEXT	SEGMENT
$T1 = 32
this$ = 64
??1initializer@?A0xac5a854a@@QEAA@XZ PROC		; `anonymous namespace'::initializer::~initializer, COMDAT
; File c:\users\dell\desktop\customcontrols\customcontrols\generatedfiles\qrc_customcontrols.cpp
; Line 172
	sub	rsp, 56					; 00000038H
	mov	QWORD PTR $T1[rsp], -2
; Line 164
	lea	r9, OFFSET FLAT:?qt_resource_data@@3QBEB
	lea	r8, OFFSET FLAT:?qt_resource_name@@3QBEB
	lea	rdx, OFFSET FLAT:?qt_resource_struct@@3QBEB
	mov	ecx, 2
	call	?qUnregisterResourceData@@YA_NHPEBE00@Z	; qUnregisterResourceData
	npad	1
; Line 172
	add	rsp, 56					; 00000038H
	ret	0
??1initializer@?A0xac5a854a@@QEAA@XZ ENDP		; `anonymous namespace'::initializer::~initializer
_TEXT	ENDS
; Function compile flags: /Ogtpy
;	COMDAT ??0initializer@?A0xac5a854a@@QEAA@XZ
_TEXT	SEGMENT
this$ = 48
??0initializer@?A0xac5a854a@@QEAA@XZ PROC		; `anonymous namespace'::initializer::initializer, COMDAT
; File c:\users\dell\desktop\customcontrols\customcontrols\generatedfiles\qrc_customcontrols.cpp
; Line 171
	push	rbx
	sub	rsp, 32					; 00000020H
	mov	rbx, rcx
; Line 156
	lea	r9, OFFSET FLAT:?qt_resource_data@@3QBEB
	mov	ecx, 2
	lea	r8, OFFSET FLAT:?qt_resource_name@@3QBEB
	lea	rdx, OFFSET FLAT:?qt_resource_struct@@3QBEB
	call	?qRegisterResourceData@@YA_NHPEBE00@Z	; qRegisterResourceData
; Line 171
	mov	rax, rbx
	add	rsp, 32					; 00000020H
	pop	rbx
	ret	0
??0initializer@?A0xac5a854a@@QEAA@XZ ENDP		; `anonymous namespace'::initializer::initializer
_TEXT	ENDS
; Function compile flags: /Ogtpy
;	COMDAT ?qCleanupResources_CustomControls@@YAHXZ
_TEXT	SEGMENT
?qCleanupResources_CustomControls@@YAHXZ PROC		; qCleanupResources_CustomControls, COMDAT
; File c:\users\dell\desktop\customcontrols\customcontrols\generatedfiles\qrc_customcontrols.cpp
; Line 163
$LN4:
	sub	rsp, 40					; 00000028H
; Line 164
	lea	r9, OFFSET FLAT:?qt_resource_data@@3QBEB
	mov	ecx, 2
	lea	r8, OFFSET FLAT:?qt_resource_name@@3QBEB
	lea	rdx, OFFSET FLAT:?qt_resource_struct@@3QBEB
	call	?qUnregisterResourceData@@YA_NHPEBE00@Z	; qUnregisterResourceData
; Line 166
	mov	eax, 1
; Line 167
	add	rsp, 40					; 00000028H
	ret	0
?qCleanupResources_CustomControls@@YAHXZ ENDP		; qCleanupResources_CustomControls
_TEXT	ENDS
; Function compile flags: /Ogtpy
;	COMDAT ?qInitResources_CustomControls@@YAHXZ
_TEXT	SEGMENT
?qInitResources_CustomControls@@YAHXZ PROC		; qInitResources_CustomControls, COMDAT
; File c:\users\dell\desktop\customcontrols\customcontrols\generatedfiles\qrc_customcontrols.cpp
; Line 155
$LN4:
	sub	rsp, 40					; 00000028H
; Line 156
	lea	r9, OFFSET FLAT:?qt_resource_data@@3QBEB
	mov	ecx, 2
	lea	r8, OFFSET FLAT:?qt_resource_name@@3QBEB
	lea	rdx, OFFSET FLAT:?qt_resource_struct@@3QBEB
	call	?qRegisterResourceData@@YA_NHPEBE00@Z	; qRegisterResourceData
; Line 158
	mov	eax, 1
; Line 159
	add	rsp, 40					; 00000028H
	ret	0
?qInitResources_CustomControls@@YAHXZ ENDP		; qInitResources_CustomControls
_TEXT	ENDS
END
